#include <math.h>
#include <stdio.h>
#include <stdlib.h>
#include <string.h>

int main()
{
	int n,i,j,r,k=0,a[10][3],c[45],d[45];
	double b[45];
	scanf("%d",&n);
	for(i=0;i<n;i++)
		scanf("%d %d %d",&a[i][0],&a[i][1],&a[i][2]);
	for(i=0;i<n;i++)
	{
		for(j=i+1;j<n;j++)
		{
			b[k]=sqrt((a[i][1]-a[j][1])*(a[i][1]-a[j][1])+(a[i][2]-a[j][2])*(a[i][2]-a[j][2])+(a[i][0]-a[j][0])*(a[i][0]-a[j][0]));
			c[k]=i;
			d[k]=j;
			k++;
		}
	}
	for(i=1;i<n*(n-1)/2;i++)
	{
        double tmp=b[i];
		for(j=i-1;j>=0;j--)
		{
			if(tmp>b[j])
			{
				b[j+1]=b[j];
				b[j]=tmp;
				r=c[j];
				c[j]=c[j+1];
				c[j+1]=r;
				r=d[j];
				d[j]=d[j+1];
				d[j+1]=r;
			}
			else
			{
                b[j+1]=tmp;
                break;
            }
		}
	}
	for(k=0;k<n*(n-1)/2;k++)
    {
    printf("(%d,%d,%d)-(%d,%d,%d)=%.2f\n",a[c[k]][0],a[c[k]][1],a[c[k]][2],a[d[k]][0],a[d[k]][1],a[d[k]][2],b[k]);
    }
	return 0;
}
