target datalayout = "e-m:e-p270:32:32-p271:32:32-p272:64:64-i64:64-f80:128-n8:16:32:64-S128"
target triple = "x86_64-pc-linux-gnu"

@.str = private unnamed_addr constant [3 x i8] c"%d\00", align 1
@.str.1 = private unnamed_addr constant [9 x i8] c"%d %d %d\00", align 1
@.str.2 = private unnamed_addr constant [28 x i8] c"(%d,%d,%d)-(%d,%d,%d)=%.2f\0A\00", align 1

; Function Attrs: noinline nounwind uwtable
define dso_local i32 @main() #0 {
  %1 = alloca i32, align 4
  %2 = alloca i32, align 4
  %3 = alloca i32, align 4
  %4 = alloca i32, align 4
  %5 = alloca i32, align 4
  %6 = alloca i32, align 4
  %7 = alloca [10 x [3 x i32]], align 16
  %8 = alloca [45 x i32], align 16
  %9 = alloca [45 x i32], align 16
  %10 = alloca [45 x double], align 16
  %11 = alloca double, align 8
  store i32 0, i32* %1, align 4
  store i32 0, i32* %6, align 4
  %12 = call i32 (i8*, ...) @__isoc99_scanf(i8* getelementptr inbounds ([3 x i8], [3 x i8]* @.str, i64 0, i64 0), i32* %2)
  store i32 0, i32* %3, align 4
  br label %13

13:                                               ; preds = %31, %0
  %14 = load i32, i32* %3, align 4
  %15 = load i32, i32* %2, align 4
  %16 = icmp slt i32 %14, %15
  br i1 %16, label %17, label %34

17:                                               ; preds = %13
  %18 = load i32, i32* %3, align 4
  %19 = sext i32 %18 to i64
  %20 = getelementptr inbounds [10 x [3 x i32]], [10 x [3 x i32]]* %7, i64 0, i64 %19
  %21 = getelementptr inbounds [3 x i32], [3 x i32]* %20, i64 0, i64 0
  %22 = load i32, i32* %3, align 4
  %23 = sext i32 %22 to i64
  %24 = getelementptr inbounds [10 x [3 x i32]], [10 x [3 x i32]]* %7, i64 0, i64 %23
  %25 = getelementptr inbounds [3 x i32], [3 x i32]* %24, i64 0, i64 1
  %26 = load i32, i32* %3, align 4
  %27 = sext i32 %26 to i64
  %28 = getelementptr inbounds [10 x [3 x i32]], [10 x [3 x i32]]* %7, i64 0, i64 %27
  %29 = getelementptr inbounds [3 x i32], [3 x i32]* %28, i64 0, i64 2
  %30 = call i32 (i8*, ...) @__isoc99_scanf(i8* getelementptr inbounds ([9 x i8], [9 x i8]* @.str.1, i64 0, i64 0), i32* %21, i32* %25, i32* %29)
  br label %31

31:                                               ; preds = %17
  %32 = load i32, i32* %3, align 4
  %33 = add nsw i32 %32, 1
  store i32 %33, i32* %3, align 4
  br label %13

34:                                               ; preds = %13
  store i32 0, i32* %3, align 4
  br label %35

35:                                               ; preds = %137, %34
  %36 = load i32, i32* %3, align 4
  %37 = load i32, i32* %2, align 4
  %38 = icmp slt i32 %36, %37
  br i1 %38, label %39, label %140

39:                                               ; preds = %35
  %40 = load i32, i32* %3, align 4
  %41 = add nsw i32 %40, 1
  store i32 %41, i32* %4, align 4
  br label %42

42:                                               ; preds = %133, %39
  %43 = load i32, i32* %4, align 4
  %44 = load i32, i32* %2, align 4
  %45 = icmp slt i32 %43, %44
  br i1 %45, label %46, label %136

46:                                               ; preds = %42
  %47 = load i32, i32* %3, align 4
  %48 = sext i32 %47 to i64
  %49 = getelementptr inbounds [10 x [3 x i32]], [10 x [3 x i32]]* %7, i64 0, i64 %48
  %50 = getelementptr inbounds [3 x i32], [3 x i32]* %49, i64 0, i64 1
  %51 = load i32, i32* %50, align 4
  %52 = load i32, i32* %4, align 4
  %53 = sext i32 %52 to i64
  %54 = getelementptr inbounds [10 x [3 x i32]], [10 x [3 x i32]]* %7, i64 0, i64 %53
  %55 = getelementptr inbounds [3 x i32], [3 x i32]* %54, i64 0, i64 1
  %56 = load i32, i32* %55, align 4
  %57 = sub nsw i32 %51, %56
  %58 = load i32, i32* %3, align 4
  %59 = sext i32 %58 to i64
  %60 = getelementptr inbounds [10 x [3 x i32]], [10 x [3 x i32]]* %7, i64 0, i64 %59
  %61 = getelementptr inbounds [3 x i32], [3 x i32]* %60, i64 0, i64 1
  %62 = load i32, i32* %61, align 4
  %63 = load i32, i32* %4, align 4
  %64 = sext i32 %63 to i64
  %65 = getelementptr inbounds [10 x [3 x i32]], [10 x [3 x i32]]* %7, i64 0, i64 %64
  %66 = getelementptr inbounds [3 x i32], [3 x i32]* %65, i64 0, i64 1
  %67 = load i32, i32* %66, align 4
  %68 = sub nsw i32 %62, %67
  %69 = mul nsw i32 %57, %68
  %70 = load i32, i32* %3, align 4
  %71 = sext i32 %70 to i64
  %72 = getelementptr inbounds [10 x [3 x i32]], [10 x [3 x i32]]* %7, i64 0, i64 %71
  %73 = getelementptr inbounds [3 x i32], [3 x i32]* %72, i64 0, i64 2
  %74 = load i32, i32* %73, align 4
  %75 = load i32, i32* %4, align 4
  %76 = sext i32 %75 to i64
  %77 = getelementptr inbounds [10 x [3 x i32]], [10 x [3 x i32]]* %7, i64 0, i64 %76
  %78 = getelementptr inbounds [3 x i32], [3 x i32]* %77, i64 0, i64 2
  %79 = load i32, i32* %78, align 4
  %80 = sub nsw i32 %74, %79
  %81 = load i32, i32* %3, align 4
  %82 = sext i32 %81 to i64
  %83 = getelementptr inbounds [10 x [3 x i32]], [10 x [3 x i32]]* %7, i64 0, i64 %82
  %84 = getelementptr inbounds [3 x i32], [3 x i32]* %83, i64 0, i64 2
  %85 = load i32, i32* %84, align 4
  %86 = load i32, i32* %4, align 4
  %87 = sext i32 %86 to i64
  %88 = getelementptr inbounds [10 x [3 x i32]], [10 x [3 x i32]]* %7, i64 0, i64 %87
  %89 = getelementptr inbounds [3 x i32], [3 x i32]* %88, i64 0, i64 2
  %90 = load i32, i32* %89, align 4
  %91 = sub nsw i32 %85, %90
  %92 = mul nsw i32 %80, %91
  %93 = add nsw i32 %69, %92
  %94 = load i32, i32* %3, align 4
  %95 = sext i32 %94 to i64
  %96 = getelementptr inbounds [10 x [3 x i32]], [10 x [3 x i32]]* %7, i64 0, i64 %95
  %97 = getelementptr inbounds [3 x i32], [3 x i32]* %96, i64 0, i64 0
  %98 = load i32, i32* %97, align 4
  %99 = load i32, i32* %4, align 4
  %100 = sext i32 %99 to i64
  %101 = getelementptr inbounds [10 x [3 x i32]], [10 x [3 x i32]]* %7, i64 0, i64 %100
  %102 = getelementptr inbounds [3 x i32], [3 x i32]* %101, i64 0, i64 0
  %103 = load i32, i32* %102, align 4
  %104 = sub nsw i32 %98, %103
  %105 = load i32, i32* %3, align 4
  %106 = sext i32 %105 to i64
  %107 = getelementptr inbounds [10 x [3 x i32]], [10 x [3 x i32]]* %7, i64 0, i64 %106
  %108 = getelementptr inbounds [3 x i32], [3 x i32]* %107, i64 0, i64 0
  %109 = load i32, i32* %108, align 4
  %110 = load i32, i32* %4, align 4
  %111 = sext i32 %110 to i64
  %112 = getelementptr inbounds [10 x [3 x i32]], [10 x [3 x i32]]* %7, i64 0, i64 %111
  %113 = getelementptr inbounds [3 x i32], [3 x i32]* %112, i64 0, i64 0
  %114 = load i32, i32* %113, align 4
  %115 = sub nsw i32 %109, %114
  %116 = mul nsw i32 %104, %115
  %117 = add nsw i32 %93, %116
  %118 = sitofp i32 %117 to double
  %119 = call double @sqrt(double %118) #3
  %120 = load i32, i32* %6, align 4
  %121 = sext i32 %120 to i64
  %122 = getelementptr inbounds [45 x double], [45 x double]* %10, i64 0, i64 %121
  store double %119, double* %122, align 8
  %123 = load i32, i32* %3, align 4
  %124 = load i32, i32* %6, align 4
  %125 = sext i32 %124 to i64
  %126 = getelementptr inbounds [45 x i32], [45 x i32]* %8, i64 0, i64 %125
  store i32 %123, i32* %126, align 4
  %127 = load i32, i32* %4, align 4
  %128 = load i32, i32* %6, align 4
  %129 = sext i32 %128 to i64
  %130 = getelementptr inbounds [45 x i32], [45 x i32]* %9, i64 0, i64 %129
  store i32 %127, i32* %130, align 4
  %131 = load i32, i32* %6, align 4
  %132 = add nsw i32 %131, 1
  store i32 %132, i32* %6, align 4
  br label %133

133:                                              ; preds = %46
  %134 = load i32, i32* %4, align 4
  %135 = add nsw i32 %134, 1
  store i32 %135, i32* %4, align 4
  br label %42

136:                                              ; preds = %42
  br label %137

137:                                              ; preds = %136
  %138 = load i32, i32* %3, align 4
  %139 = add nsw i32 %138, 1
  store i32 %139, i32* %3, align 4
  br label %35

140:                                              ; preds = %35
  store i32 1, i32* %3, align 4
  br label %141

141:                                              ; preds = %224, %140
  %142 = load i32, i32* %3, align 4
  %143 = load i32, i32* %2, align 4
  %144 = load i32, i32* %2, align 4
  %145 = sub nsw i32 %144, 1
  %146 = mul nsw i32 %143, %145
  %147 = sdiv i32 %146, 2
  %148 = icmp slt i32 %142, %147
  br i1 %148, label %149, label %227

149:                                              ; preds = %141
  %150 = load i32, i32* %3, align 4
  %151 = sext i32 %150 to i64
  %152 = getelementptr inbounds [45 x double], [45 x double]* %10, i64 0, i64 %151
  %153 = load double, double* %152, align 8
  store double %153, double* %11, align 8
  %154 = load i32, i32* %3, align 4
  %155 = sub nsw i32 %154, 1
  store i32 %155, i32* %4, align 4
  br label %156

156:                                              ; preds = %220, %149
  %157 = load i32, i32* %4, align 4
  %158 = icmp sge i32 %157, 0
  br i1 %158, label %159, label %223

159:                                              ; preds = %156
  %160 = load double, double* %11, align 8
  %161 = load i32, i32* %4, align 4
  %162 = sext i32 %161 to i64
  %163 = getelementptr inbounds [45 x double], [45 x double]* %10, i64 0, i64 %162
  %164 = load double, double* %163, align 8
  %165 = fcmp ogt double %160, %164
  br i1 %165, label %166, label %213

166:                                              ; preds = %159
  %167 = load i32, i32* %4, align 4
  %168 = sext i32 %167 to i64
  %169 = getelementptr inbounds [45 x double], [45 x double]* %10, i64 0, i64 %168
  %170 = load double, double* %169, align 8
  %171 = load i32, i32* %4, align 4
  %172 = add nsw i32 %171, 1
  %173 = sext i32 %172 to i64
  %174 = getelementptr inbounds [45 x double], [45 x double]* %10, i64 0, i64 %173
  store double %170, double* %174, align 8
  %175 = load double, double* %11, align 8
  %176 = load i32, i32* %4, align 4
  %177 = sext i32 %176 to i64
  %178 = getelementptr inbounds [45 x double], [45 x double]* %10, i64 0, i64 %177
  store double %175, double* %178, align 8
  %179 = load i32, i32* %4, align 4
  %180 = sext i32 %179 to i64
  %181 = getelementptr inbounds [45 x i32], [45 x i32]* %8, i64 0, i64 %180
  %182 = load i32, i32* %181, align 4
  store i32 %182, i32* %5, align 4
  %183 = load i32, i32* %4, align 4
  %184 = add nsw i32 %183, 1
  %185 = sext i32 %184 to i64
  %186 = getelementptr inbounds [45 x i32], [45 x i32]* %8, i64 0, i64 %185
  %187 = load i32, i32* %186, align 4
  %188 = load i32, i32* %4, align 4
  %189 = sext i32 %188 to i64
  %190 = getelementptr inbounds [45 x i32], [45 x i32]* %8, i64 0, i64 %189
  store i32 %187, i32* %190, align 4
  %191 = load i32, i32* %5, align 4
  %192 = load i32, i32* %4, align 4
  %193 = add nsw i32 %192, 1
  %194 = sext i32 %193 to i64
  %195 = getelementptr inbounds [45 x i32], [45 x i32]* %8, i64 0, i64 %194
  store i32 %191, i32* %195, align 4
  %196 = load i32, i32* %4, align 4
  %197 = sext i32 %196 to i64
  %198 = getelementptr inbounds [45 x i32], [45 x i32]* %9, i64 0, i64 %197
  %199 = load i32, i32* %198, align 4
  store i32 %199, i32* %5, align 4
  %200 = load i32, i32* %4, align 4
  %201 = add nsw i32 %200, 1
  %202 = sext i32 %201 to i64
  %203 = getelementptr inbounds [45 x i32], [45 x i32]* %9, i64 0, i64 %202
  %204 = load i32, i32* %203, align 4
  %205 = load i32, i32* %4, align 4
  %206 = sext i32 %205 to i64
  %207 = getelementptr inbounds [45 x i32], [45 x i32]* %9, i64 0, i64 %206
  store i32 %204, i32* %207, align 4
  %208 = load i32, i32* %5, align 4
  %209 = load i32, i32* %4, align 4
  %210 = add nsw i32 %209, 1
  %211 = sext i32 %210 to i64
  %212 = getelementptr inbounds [45 x i32], [45 x i32]* %9, i64 0, i64 %211
  store i32 %208, i32* %212, align 4
  br label %219

213:                                              ; preds = %159
  %214 = load double, double* %11, align 8
  %215 = load i32, i32* %4, align 4
  %216 = add nsw i32 %215, 1
  %217 = sext i32 %216 to i64
  %218 = getelementptr inbounds [45 x double], [45 x double]* %10, i64 0, i64 %217
  store double %214, double* %218, align 8
  br label %223

219:                                              ; preds = %166
  br label %220

220:                                              ; preds = %219
  %221 = load i32, i32* %4, align 4
  %222 = add nsw i32 %221, -1
  store i32 %222, i32* %4, align 4
  br label %156

223:                                              ; preds = %213, %156
  br label %224

224:                                              ; preds = %223
  %225 = load i32, i32* %3, align 4
  %226 = add nsw i32 %225, 1
  store i32 %226, i32* %3, align 4
  br label %141

227:                                              ; preds = %141
  store i32 0, i32* %6, align 4
  br label %228

228:                                              ; preds = %290, %227
  %229 = load i32, i32* %6, align 4
  %230 = load i32, i32* %2, align 4
  %231 = load i32, i32* %2, align 4
  %232 = sub nsw i32 %231, 1
  %233 = mul nsw i32 %230, %232
  %234 = sdiv i32 %233, 2
  %235 = icmp slt i32 %229, %234
  br i1 %235, label %236, label %293

236:                                              ; preds = %228
  %237 = load i32, i32* %6, align 4
  %238 = sext i32 %237 to i64
  %239 = getelementptr inbounds [45 x i32], [45 x i32]* %8, i64 0, i64 %238
  %240 = load i32, i32* %239, align 4
  %241 = sext i32 %240 to i64
  %242 = getelementptr inbounds [10 x [3 x i32]], [10 x [3 x i32]]* %7, i64 0, i64 %241
  %243 = getelementptr inbounds [3 x i32], [3 x i32]* %242, i64 0, i64 0
  %244 = load i32, i32* %243, align 4
  %245 = load i32, i32* %6, align 4
  %246 = sext i32 %245 to i64
  %247 = getelementptr inbounds [45 x i32], [45 x i32]* %8, i64 0, i64 %246
  %248 = load i32, i32* %247, align 4
  %249 = sext i32 %248 to i64
  %250 = getelementptr inbounds [10 x [3 x i32]], [10 x [3 x i32]]* %7, i64 0, i64 %249
  %251 = getelementptr inbounds [3 x i32], [3 x i32]* %250, i64 0, i64 1
  %252 = load i32, i32* %251, align 4
  %253 = load i32, i32* %6, align 4
  %254 = sext i32 %253 to i64
  %255 = getelementptr inbounds [45 x i32], [45 x i32]* %8, i64 0, i64 %254
  %256 = load i32, i32* %255, align 4
  %257 = sext i32 %256 to i64
  %258 = getelementptr inbounds [10 x [3 x i32]], [10 x [3 x i32]]* %7, i64 0, i64 %257
  %259 = getelementptr inbounds [3 x i32], [3 x i32]* %258, i64 0, i64 2
  %260 = load i32, i32* %259, align 4
  %261 = load i32, i32* %6, align 4
  %262 = sext i32 %261 to i64
  %263 = getelementptr inbounds [45 x i32], [45 x i32]* %9, i64 0, i64 %262
  %264 = load i32, i32* %263, align 4
  %265 = sext i32 %264 to i64
  %266 = getelementptr inbounds [10 x [3 x i32]], [10 x [3 x i32]]* %7, i64 0, i64 %265
  %267 = getelementptr inbounds [3 x i32], [3 x i32]* %266, i64 0, i64 0
  %268 = load i32, i32* %267, align 4
  %269 = load i32, i32* %6, align 4
  %270 = sext i32 %269 to i64
  %271 = getelementptr inbounds [45 x i32], [45 x i32]* %9, i64 0, i64 %270
  %272 = load i32, i32* %271, align 4
  %273 = sext i32 %272 to i64
  %274 = getelementptr inbounds [10 x [3 x i32]], [10 x [3 x i32]]* %7, i64 0, i64 %273
  %275 = getelementptr inbounds [3 x i32], [3 x i32]* %274, i64 0, i64 1
  %276 = load i32, i32* %275, align 4
  %277 = load i32, i32* %6, align 4
  %278 = sext i32 %277 to i64
  %279 = getelementptr inbounds [45 x i32], [45 x i32]* %9, i64 0, i64 %278
  %280 = load i32, i32* %279, align 4
  %281 = sext i32 %280 to i64
  %282 = getelementptr inbounds [10 x [3 x i32]], [10 x [3 x i32]]* %7, i64 0, i64 %281
  %283 = getelementptr inbounds [3 x i32], [3 x i32]* %282, i64 0, i64 2
  %284 = load i32, i32* %283, align 4
  %285 = load i32, i32* %6, align 4
  %286 = sext i32 %285 to i64
  %287 = getelementptr inbounds [45 x double], [45 x double]* %10, i64 0, i64 %286
  %288 = load double, double* %287, align 8
  %289 = call i32 (i8*, ...) @printf(i8* getelementptr inbounds ([28 x i8], [28 x i8]* @.str.2, i64 0, i64 0), i32 %244, i32 %252, i32 %260, i32 %268, i32 %276, i32 %284, double %288)
  br label %290

290:                                              ; preds = %236
  %291 = load i32, i32* %6, align 4
  %292 = add nsw i32 %291, 1
  store i32 %292, i32* %6, align 4
  br label %228

293:                                              ; preds = %228
  ret i32 0
}